target datalayout = "e-m:e-p270:32:32-p271:32:32-p272:64:64-i64:64-i128:128-f80:128-n8:16:32:64-S128"
target triple = "x86_64-unknown-linux-gnu"

%struct.IDEBus = type { %struct.BusState, ptr, ptr, [2 x %struct.IDEState], ptr, i32, i32, ptr, i8, i8, ptr, i32, i8, i64, i32, %struct.PortioList, %struct.PortioList, ptr }
%struct.BusState = type { %struct.Object, ptr, ptr, ptr, i32, i8, i8, i32, %union.BusChildHead, %struct.BusStateEntry, %struct.ResettableState }
%struct.Object = type { ptr, ptr, ptr, i32, ptr }
%union.BusChildHead = type { %struct.QTailQLink }
%struct.QTailQLink = type { ptr, ptr }
%struct.BusStateEntry = type { ptr, ptr }
%struct.ResettableState = type { i32, i8, i8 }
%struct.IDEState = type { ptr, i8, i32, i32, i32, i32, i32, i32, i32, i64, i32, i32, [512 x i8], i32, [21 x i8], [41 x i8], i64, i8, i8, i32, i8, i8, i8, i8, i8, i8, i8, i8, i8, i8, i8, i8, i8, ptr, [9 x i8], %struct.unreported_events, i8, i8, i8, i8, i8, i32, i32, i32, i32, i32, i32, %struct.BlockAcctCookie, ptr, %struct.QEMUIOVector, %struct.anon.1, i64, i32, %struct.QEMUSGList, i32, ptr, ptr, ptr, ptr, i32, i32, i32, i8, ptr, i32, i8, i32, ptr, i32, i32, i8, i8, i32, i8, ptr, i32 }
%struct.unreported_events = type { i8, i8 }
%struct.BlockAcctCookie = type { i64, i64, i32 }
%struct.QEMUIOVector = type { ptr, i32, %union.anon }
%union.anon = type { %struct.anon }
%struct.anon = type { i32, %struct.iovec }
%struct.iovec = type { ptr, i64 }
%struct.anon.1 = type { ptr }
%struct.QEMUSGList = type { ptr, i32, i32, i64, ptr, ptr }
%struct.PortioList = type { ptr, ptr, ptr, i32, ptr, ptr, ptr, i8 }
%struct.ObjectClass = type { ptr, ptr, [4 x ptr], [4 x ptr], ptr, ptr }
%struct.DeviceState = type { %struct.Object, ptr, ptr, i8, i8, i64, ptr, i32, i8, ptr, %struct.NamedGPIOListHead, %struct.NamedClockListHead, %struct.BusStateHead, i32, i32, i32, %struct.ResettableState, ptr, %struct.MemReentrancyGuard }
%struct.NamedGPIOListHead = type { ptr }
%struct.NamedClockListHead = type { ptr }
%struct.BusStateHead = type { ptr }
%struct.MemReentrancyGuard = type { i8 }
%struct.IDEDeviceClass = type { %struct.DeviceClass, ptr }
%struct.DeviceClass = type { %struct.ObjectClass, [1 x i64], ptr, ptr, ptr, i8, i8, ptr, ptr, ptr, ptr, ptr }
%struct.IDEDevice = type { %struct.DeviceState, i32, %struct.BlockConf, i32, ptr, ptr, ptr, i64, i16 }
%struct.BlockConf = type { ptr, i32, i32, i32, i32, i32, i32, i32, i32, i32, i32, i32, i32, i32, i32, i8, i32, i32, i32, i32 }

@.str.8 = private unnamed_addr constant [104 x i8] c"/home/dtcxzyw/WorkSpace/Projects/compilers/llvm-opt-benchmark/bench/qemu/qemu/include/hw/ide/internal.h\00", align 1
@.str.9 = private unnamed_addr constant [11 x i8] c"ide-device\00", align 1
@.str.12 = private unnamed_addr constant [22 x i8] c"../qemu/hw/ide/qdev.c\00", align 1
@__func__.IDE_DEVICE = private unnamed_addr constant [11 x i8] c"IDE_DEVICE\00", align 1
@__func__.ide_qdev_realize = private unnamed_addr constant [17 x i8] c"ide_qdev_realize\00", align 1
@.str.48 = private unnamed_addr constant [53 x i8] c"Can't create IDE unit %d, bus supports only %d units\00", align 1
@.str.49 = private unnamed_addr constant [22 x i8] c"IDE unit %d is in use\00", align 1
@.str.50 = private unnamed_addr constant [20 x i8] c"Invalid IDE unit %d\00", align 1
@__func__.IDE_DEVICE_GET_CLASS = private unnamed_addr constant [21 x i8] c"IDE_DEVICE_GET_CLASS\00", align 1

; Function Attrs: nounwind sspstrong uwtable
define internal ptr @IDE_DEVICE_GET_CLASS(ptr noundef %obj) #0 {
entry:
  %obj.addr = alloca ptr, align 8
  store ptr %obj, ptr %obj.addr, align 8
  %0 = load ptr, ptr %obj.addr, align 8
  %call = call ptr @object_get_class(ptr noundef %0)
  %call1 = call ptr @object_class_dynamic_cast_assert(ptr noundef %call, ptr noundef @.str.9, ptr noundef @.str.8, i32 noundef 506, ptr noundef @__func__.IDE_DEVICE_GET_CLASS)
  ret ptr %call1
}

; Function Attrs: nounwind sspstrong uwtable
define internal ptr @IDE_DEVICE(ptr noundef %obj) #0 {
entry:
  %obj.addr = alloca ptr, align 8
  store ptr %obj, ptr %obj.addr, align 8
  %0 = load ptr, ptr %obj.addr, align 8
  %call = call ptr @object_dynamic_cast_assert(ptr noundef %0, ptr noundef @.str.9, ptr noundef @.str.8, i32 noundef 506, ptr noundef @__func__.IDE_DEVICE)
  ret ptr %call
}

; Function Attrs: nounwind sspstrong uwtable
define internal void @ide_qdev_realize(ptr noundef %qdev, ptr noundef %errp) #0 {
entry:
  %qdev.addr = alloca ptr, align 8
  %errp.addr = alloca ptr, align 8
  %dev = alloca ptr, align 8
  %dc = alloca ptr, align 8
  %bus = alloca ptr, align 8
  %tmp = alloca ptr, align 8
  %__mptr = alloca ptr, align 8
  %tmp2 = alloca ptr, align 8
  store ptr %qdev, ptr %qdev.addr, align 8
  store ptr %errp, ptr %errp.addr, align 8
  %0 = load ptr, ptr %qdev.addr, align 8
  %call = call ptr @IDE_DEVICE(ptr noundef %0)
  store ptr %call, ptr %dev, align 8
  %1 = load ptr, ptr %dev, align 8
  %call1 = call ptr @IDE_DEVICE_GET_CLASS(ptr noundef %1)
  store ptr %call1, ptr %dc, align 8
  %2 = load ptr, ptr %qdev.addr, align 8
  %parent_bus = getelementptr inbounds %struct.DeviceState, ptr %2, i32 0, i32 9
  %3 = load ptr, ptr %parent_bus, align 8
  store ptr %3, ptr %__mptr, align 8
  %4 = load ptr, ptr %__mptr, align 8
  %add.ptr = getelementptr i8, ptr %4, i64 0
  store ptr %add.ptr, ptr %tmp2, align 8
  %5 = load ptr, ptr %tmp2, align 8
  store ptr %5, ptr %tmp, align 8
  %6 = load ptr, ptr %tmp, align 8
  store ptr %6, ptr %bus, align 8
  %7 = load ptr, ptr %dev, align 8
  %unit = getelementptr inbounds %struct.IDEDevice, ptr %7, i32 0, i32 1
  %8 = load i32, ptr %unit, align 8
  %cmp = icmp eq i32 %8, -1
  br i1 %cmp, label %if.then, label %if.end

if.then:                                          ; preds = %entry
  %9 = load ptr, ptr %bus, align 8
  %master = getelementptr inbounds %struct.IDEBus, ptr %9, i32 0, i32 1
  %10 = load ptr, ptr %master, align 8
  %tobool = icmp ne ptr %10, null
  %cond = select i1 %tobool, i32 1, i32 0
  %11 = load ptr, ptr %dev, align 8
  %unit3 = getelementptr inbounds %struct.IDEDevice, ptr %11, i32 0, i32 1
  store i32 %cond, ptr %unit3, align 8
  br label %if.end

if.end:                                           ; preds = %if.then, %entry
  %12 = load ptr, ptr %dev, align 8
  %unit4 = getelementptr inbounds %struct.IDEDevice, ptr %12, i32 0, i32 1
  %13 = load i32, ptr %unit4, align 8
  %14 = load ptr, ptr %bus, align 8
  %max_units = getelementptr inbounds %struct.IDEBus, ptr %14, i32 0, i32 6
  %15 = load i32, ptr %max_units, align 4
  %cmp5 = icmp uge i32 %13, %15
  br i1 %cmp5, label %if.then6, label %if.end9

if.then6:                                         ; preds = %if.end
  %16 = load ptr, ptr %errp.addr, align 8
  %17 = load ptr, ptr %dev, align 8
  %unit7 = getelementptr inbounds %struct.IDEDevice, ptr %17, i32 0, i32 1
  %18 = load i32, ptr %unit7, align 8
  %19 = load ptr, ptr %bus, align 8
  %max_units8 = getelementptr inbounds %struct.IDEBus, ptr %19, i32 0, i32 6
  %20 = load i32, ptr %max_units8, align 4
  call void (ptr, ptr, i32, ptr, ptr, ...) @error_setg_internal(ptr noundef %16, ptr noundef @.str.12, i32 noundef 101, ptr noundef @__func__.ide_qdev_realize, ptr noundef @.str.48, i32 noundef %18, i32 noundef %20)
  br label %return

if.end9:                                          ; preds = %if.end
  %21 = load ptr, ptr %dev, align 8
  %unit10 = getelementptr inbounds %struct.IDEDevice, ptr %21, i32 0, i32 1
  %22 = load i32, ptr %unit10, align 8
  switch i32 %22, label %sw.default [
    i32 0, label %sw.bb
    i32 1, label %sw.bb17
  ]

sw.bb:                                            ; preds = %if.end9
  %23 = load ptr, ptr %bus, align 8
  %master11 = getelementptr inbounds %struct.IDEBus, ptr %23, i32 0, i32 1
  %24 = load ptr, ptr %master11, align 8
  %tobool12 = icmp ne ptr %24, null
  br i1 %tobool12, label %if.then13, label %if.end15

if.then13:                                        ; preds = %sw.bb
  %25 = load ptr, ptr %errp.addr, align 8
  %26 = load ptr, ptr %dev, align 8
  %unit14 = getelementptr inbounds %struct.IDEDevice, ptr %26, i32 0, i32 1
  %27 = load i32, ptr %unit14, align 8
  call void (ptr, ptr, i32, ptr, ptr, ...) @error_setg_internal(ptr noundef %25, ptr noundef @.str.12, i32 noundef 108, ptr noundef @__func__.ide_qdev_realize, ptr noundef @.str.49, i32 noundef %27)
  br label %return

if.end15:                                         ; preds = %sw.bb
  %28 = load ptr, ptr %dev, align 8
  %29 = load ptr, ptr %bus, align 8
  %master16 = getelementptr inbounds %struct.IDEBus, ptr %29, i32 0, i32 1
  store ptr %28, ptr %master16, align 8
  br label %sw.epilog

sw.bb17:                                          ; preds = %if.end9
  %30 = load ptr, ptr %bus, align 8
  %slave = getelementptr inbounds %struct.IDEBus, ptr %30, i32 0, i32 2
  %31 = load ptr, ptr %slave, align 8
  %tobool18 = icmp ne ptr %31, null
  br i1 %tobool18, label %if.then19, label %if.end21

if.then19:                                        ; preds = %sw.bb17
  %32 = load ptr, ptr %errp.addr, align 8
  %33 = load ptr, ptr %dev, align 8
  %unit20 = getelementptr inbounds %struct.IDEDevice, ptr %33, i32 0, i32 1
  %34 = load i32, ptr %unit20, align 8
  call void (ptr, ptr, i32, ptr, ptr, ...) @error_setg_internal(ptr noundef %32, ptr noundef @.str.12, i32 noundef 115, ptr noundef @__func__.ide_qdev_realize, ptr noundef @.str.49, i32 noundef %34)
  br label %return

if.end21:                                         ; preds = %sw.bb17
  %35 = load ptr, ptr %dev, align 8
  %36 = load ptr, ptr %bus, align 8
  %slave22 = getelementptr inbounds %struct.IDEBus, ptr %36, i32 0, i32 2
  store ptr %35, ptr %slave22, align 8
  br label %sw.epilog

sw.default:                                       ; preds = %if.end9
  %37 = load ptr, ptr %errp.addr, align 8
  %38 = load ptr, ptr %dev, align 8
  %unit23 = getelementptr inbounds %struct.IDEDevice, ptr %38, i32 0, i32 1
  %39 = load i32, ptr %unit23, align 8
  call void (ptr, ptr, i32, ptr, ptr, ...) @error_setg_internal(ptr noundef %37, ptr noundef @.str.12, i32 noundef 121, ptr noundef @__func__.ide_qdev_realize, ptr noundef @.str.50, i32 noundef %39)
  br label %return

sw.epilog:                                        ; preds = %if.end21, %if.end15
  %40 = load ptr, ptr %dc, align 8
  %realize = getelementptr inbounds %struct.IDEDeviceClass, ptr %40, i32 0, i32 1
  %41 = load ptr, ptr %realize, align 8
  %42 = load ptr, ptr %dev, align 8
  %43 = load ptr, ptr %errp.addr, align 8
  call void %41(ptr noundef %42, ptr noundef %43)
  br label %return

return:                                           ; preds = %sw.epilog, %sw.default, %if.then19, %if.then13, %if.then6
  ret void
}