; Function Attrs: nounwind sspstrong uwtable
define internal void @ide_qdev_realize(ptr noundef %qdev, ptr noundef %errp) #0 {
entry:
  %call.i = tail call ptr @object_dynamic_cast_assert(ptr noundef %qdev, ptr noundef nonnull @.str.9, ptr noundef nonnull @.str.8, i32 noundef 506, ptr noundef nonnull @__func__.IDE_DEVICE) #6
  %call.i24 = tail call ptr @object_get_class(ptr noundef %call.i) #6
  %call1.i = tail call ptr @object_class_dynamic_cast_assert(ptr noundef %call.i24, ptr noundef nonnull @.str.9, ptr noundef nonnull @.str.8, i32 noundef 506, ptr noundef nonnull @__func__.IDE_DEVICE_GET_CLASS) #6
  %parent_bus = getelementptr inbounds nuw i8, ptr %qdev, i64 88
  %0 = load ptr, ptr %parent_bus, align 8
  %unit = getelementptr inbounds nuw i8, ptr %call.i, i64 160
  %1 = load i32, ptr %unit, align 8
  %cmp = icmp eq i32 %1, -1
  br i1 %cmp, label %if.then, label %if.end

if.then:                                          ; preds = %entry
  %master = getelementptr inbounds nuw i8, ptr %0, i64 120
  %2 = load ptr, ptr %master, align 8
  %tobool.not = icmp ne ptr %2, null
  %cond = zext i1 %tobool.not to i32
  store i32 %cond, ptr %unit, align 8
  br label %if.end

if.end:                                           ; preds = %if.then, %entry
  %3 = phi i32 [ %cond, %if.then ], [ %1, %entry ]
  %max_units = getelementptr inbounds nuw i8, ptr %0, i64 2116
  %4 = load i32, ptr %max_units, align 4
  %cmp5.not = icmp ult i32 %3, %4
  br i1 %cmp5.not, label %if.end9, label %if.then6

if.then6:                                         ; preds = %if.end
  tail call void (ptr, ptr, i32, ptr, ptr, ...) @error_setg_internal(ptr noundef %errp, ptr noundef nonnull @.str.12, i32 noundef 101, ptr noundef nonnull @__func__.ide_qdev_realize, ptr noundef nonnull @.str.48, i32 noundef %3, i32 noundef %4) #6
  br label %return

if.end9:                                          ; preds = %if.end
  switch i32 %3, label %sw.default [
    i32 0, label %sw.bb
    i32 1, label %sw.bb17
  ]

sw.bb:                                            ; preds = %if.end9
  %master11 = getelementptr inbounds nuw i8, ptr %0, i64 120
  %5 = load ptr, ptr %master11, align 8
  %tobool12.not = icmp eq ptr %5, null
  br i1 %tobool12.not, label %if.end15, label %if.then13

if.then13:                                        ; preds = %sw.bb
  tail call void (ptr, ptr, i32, ptr, ptr, ...) @error_setg_internal(ptr noundef %errp, ptr noundef nonnull @.str.12, i32 noundef 108, ptr noundef nonnull @__func__.ide_qdev_realize, ptr noundef nonnull @.str.49, i32 noundef 0) #6
  br label %return

if.end15:                                         ; preds = %sw.bb
  store ptr %call.i, ptr %master11, align 8
  br label %sw.epilog

sw.bb17:                                          ; preds = %if.end9
  %slave = getelementptr inbounds nuw i8, ptr %0, i64 128
  %6 = load ptr, ptr %slave, align 8
  %tobool18.not = icmp eq ptr %6, null
  br i1 %tobool18.not, label %if.end21, label %if.then19

if.then19:                                        ; preds = %sw.bb17
  tail call void (ptr, ptr, i32, ptr, ptr, ...) @error_setg_internal(ptr noundef %errp, ptr noundef nonnull @.str.12, i32 noundef 115, ptr noundef nonnull @__func__.ide_qdev_realize, ptr noundef nonnull @.str.49, i32 noundef 1) #6
  br label %return

if.end21:                                         ; preds = %sw.bb17
  store ptr %call.i, ptr %slave, align 8
  br label %sw.epilog

sw.default:                                       ; preds = %if.end9
  tail call void (ptr, ptr, i32, ptr, ptr, ...) @error_setg_internal(ptr noundef %errp, ptr noundef nonnull @.str.12, i32 noundef 121, ptr noundef nonnull @__func__.ide_qdev_realize, ptr noundef nonnull @.str.50, i32 noundef %3) #6
  br label %return

sw.epilog:                                        ; preds = %if.end21, %if.end15
  %realize = getelementptr inbounds nuw i8, ptr %call1.i, i64 176
  %7 = load ptr, ptr %realize, align 8
  tail call void %7(ptr noundef nonnull %call.i, ptr noundef %errp) #6
  br label %return

return:                                           ; preds = %sw.epilog, %sw.default, %if.then19, %if.then13, %if.then6
  ret void
}